target datalayout = "e-m:e-p270:32:32-p271:32:32-p272:64:64-i64:64-i128:128-f80:128-n8:16:32:64-S128"
target triple = "x86_64-pc-linux-gnu"

%struct.pm_lex_mode = type { i32, %union.anon, ptr }
%union.anon = type { %struct.anon.3 }
%struct.anon.3 = type { %struct.pm_heredoc_lex_mode_t, ptr, ptr, i8 }
%struct.pm_heredoc_lex_mode_t = type { ptr, i64, i32, i32 }
%struct.pm_parser = type { i32, i32, i32, i32, i32, i32, i32, %struct.anon, ptr, ptr, %struct.pm_token_t, %struct.pm_token_t, ptr, ptr, %struct.pm_list_t, %struct.pm_list_t, %struct.pm_location_t, %struct.pm_list_t, %struct.pm_list_t, ptr, ptr, ptr, ptr, ptr, ptr, ptr, %struct.pm_string_t, %struct.pm_constant_pool_t, %struct.pm_newline_list_t, i16, %struct.pm_string_t, i32, ptr, ptr, i32, i8, i8, i8, i8, i8, i8, i8, i8, i8, i8, i8, i8, i8 }
%struct.anon = type { ptr, [4 x %struct.pm_lex_mode], i64 }
%struct.pm_token_t = type { i32, ptr, ptr }
%struct.pm_location_t = type { ptr, ptr }
%struct.pm_list_t = type { i64, ptr, ptr }
%struct.pm_constant_pool_t = type { ptr, ptr, i32, i32 }
%struct.pm_newline_list_t = type { ptr, i64, i64, ptr }
%struct.pm_string_t = type { ptr, i64, i32 }
%struct.pm_node = type { i16, i16, i32, %struct.pm_location_t }
%struct.pm_while_node = type { %struct.pm_node, %struct.pm_location_t, %struct.pm_location_t, %struct.pm_location_t, ptr, ptr }

@stderr = external global ptr, align 8
@.str.94 = private unnamed_addr constant [29 x i8] c"Failed to allocate %d bytes\0A\00", align 1

; Function Attrs: inlinehint nounwind sspstrong uwtable
define internal ptr @pm_node_alloc(ptr noundef %0, i64 noundef %1) #7 {
  %3 = alloca ptr, align 8
  %4 = alloca i64, align 8
  %5 = alloca ptr, align 8
  store ptr %0, ptr %3, align 8, !tbaa !7
  store i64 %1, ptr %4, align 8, !tbaa !14
  call void @llvm.lifetime.start.p0(i64 8, ptr %5) #15
  %6 = load i64, ptr %4, align 8, !tbaa !14
  %7 = call noalias ptr @calloc(i64 noundef 1, i64 noundef %6) #18
  store ptr %7, ptr %5, align 8, !tbaa !57
  %8 = load ptr, ptr %5, align 8, !tbaa !57
  %9 = icmp eq ptr %8, null
  br i1 %9, label %10, label %15

10:                                               ; preds = %2
  %11 = load ptr, ptr @stderr, align 8, !tbaa !452
  %12 = load i64, ptr %4, align 8, !tbaa !14
  %13 = trunc i64 %12 to i32
  %14 = call i32 (ptr, i32, ptr, ...) @__fprintf_chk(ptr noundef %11, i32 noundef 1, ptr noundef @.str.94, i32 noundef %13)
  call void @abort() #19
  unreachable

15:                                               ; preds = %2
  %16 = load ptr, ptr %5, align 8, !tbaa !57
  call void @llvm.lifetime.end.p0(i64 8, ptr %5) #15
  ret ptr %16
}

; Function Attrs: nounwind sspstrong uwtable
define internal ptr @pm_while_node_create(ptr noundef %0, ptr noundef %1, ptr noundef %2, ptr noundef %3, ptr noundef %4, ptr noundef %5, i16 noundef zeroext %6) #0 {
  %8 = alloca ptr, align 8
  %9 = alloca ptr, align 8
  %10 = alloca ptr, align 8
  %11 = alloca ptr, align 8
  %12 = alloca ptr, align 8
  %13 = alloca ptr, align 8
  %14 = alloca i16, align 2
  %15 = alloca ptr, align 8
  %16 = alloca %struct.pm_while_node, align 8
  store ptr %0, ptr %8, align 8, !tbaa !7
  store ptr %1, ptr %9, align 8, !tbaa !57
  store ptr %2, ptr %10, align 8, !tbaa !57
  store ptr %3, ptr %11, align 8, !tbaa !57
  store ptr %4, ptr %12, align 8, !tbaa !128
  store ptr %5, ptr %13, align 8, !tbaa !122
  store i16 %6, ptr %14, align 2, !tbaa !59
  call void @llvm.lifetime.start.p0(i64 8, ptr %15) #15
  %17 = load ptr, ptr %8, align 8, !tbaa !7
  %18 = call ptr @pm_node_alloc(ptr noundef %17, i64 noundef 88)
  store ptr %18, ptr %15, align 8, !tbaa !762
  %19 = load ptr, ptr %8, align 8, !tbaa !7
  %20 = load ptr, ptr %12, align 8, !tbaa !128
  call void @pm_conditional_predicate(ptr noundef %19, ptr noundef %20, i32 noundef 0)
  %21 = load ptr, ptr %15, align 8, !tbaa !762
  %22 = getelementptr inbounds nuw %struct.pm_while_node, ptr %16, i32 0, i32 0
  %23 = getelementptr inbounds nuw %struct.pm_node, ptr %22, i32 0, i32 0
  store i16 149, ptr %23, align 8, !tbaa !206
  %24 = getelementptr inbounds nuw %struct.pm_node, ptr %22, i32 0, i32 1
  %25 = load i16, ptr %14, align 2, !tbaa !59
  store i16 %25, ptr %24, align 2, !tbaa !222
  %26 = getelementptr inbounds nuw %struct.pm_node, ptr %22, i32 0, i32 2
  %27 = load ptr, ptr %8, align 8, !tbaa !7
  %28 = getelementptr inbounds nuw %struct.pm_parser, ptr %27, i32 0, i32 0
  %29 = load i32, ptr %28, align 8, !tbaa !238
  %30 = add i32 %29, 1
  store i32 %30, ptr %28, align 8, !tbaa !238
  store i32 %30, ptr %26, align 4, !tbaa !239
  %31 = getelementptr inbounds nuw %struct.pm_node, ptr %22, i32 0, i32 3
  %32 = getelementptr inbounds nuw %struct.pm_location_t, ptr %31, i32 0, i32 0
  %33 = load ptr, ptr %9, align 8, !tbaa !57
  %34 = getelementptr inbounds nuw %struct.pm_token_t, ptr %33, i32 0, i32 1
  %35 = load ptr, ptr %34, align 8, !tbaa !43
  store ptr %35, ptr %32, align 8, !tbaa !152
  %36 = getelementptr inbounds nuw %struct.pm_location_t, ptr %31, i32 0, i32 1
  %37 = load ptr, ptr %11, align 8, !tbaa !57
  %38 = getelementptr inbounds nuw %struct.pm_token_t, ptr %37, i32 0, i32 2
  %39 = load ptr, ptr %38, align 8, !tbaa !44
  store ptr %39, ptr %36, align 8, !tbaa !153
  %40 = getelementptr inbounds nuw %struct.pm_while_node, ptr %16, i32 0, i32 1
  %41 = getelementptr inbounds nuw %struct.pm_location_t, ptr %40, i32 0, i32 0
  %42 = load ptr, ptr %9, align 8, !tbaa !57
  %43 = getelementptr inbounds nuw %struct.pm_token_t, ptr %42, i32 0, i32 1
  %44 = load ptr, ptr %43, align 8, !tbaa !43
  store ptr %44, ptr %41, align 8, !tbaa !152
  %45 = getelementptr inbounds nuw %struct.pm_location_t, ptr %40, i32 0, i32 1
  %46 = load ptr, ptr %9, align 8, !tbaa !57
  %47 = getelementptr inbounds nuw %struct.pm_token_t, ptr %46, i32 0, i32 2
  %48 = load ptr, ptr %47, align 8, !tbaa !44
  store ptr %48, ptr %45, align 8, !tbaa !153
  %49 = getelementptr inbounds nuw %struct.pm_while_node, ptr %16, i32 0, i32 2
  %50 = load ptr, ptr %10, align 8, !tbaa !57
  %51 = getelementptr inbounds nuw %struct.pm_token_t, ptr %50, i32 0, i32 0
  %52 = load i32, ptr %51, align 8, !tbaa !42
  %53 = icmp eq i32 %52, 3
  br i1 %53, label %54, label %57

54:                                               ; preds = %7
  %55 = getelementptr inbounds nuw %struct.pm_location_t, ptr %49, i32 0, i32 0
  store ptr null, ptr %55, align 8, !tbaa !152
  %56 = getelementptr inbounds nuw %struct.pm_location_t, ptr %49, i32 0, i32 1
  store ptr null, ptr %56, align 8, !tbaa !153
  br label %66

57:                                               ; preds = %7
  %58 = getelementptr inbounds nuw %struct.pm_location_t, ptr %49, i32 0, i32 0
  %59 = load ptr, ptr %10, align 8, !tbaa !57
  %60 = getelementptr inbounds nuw %struct.pm_token_t, ptr %59, i32 0, i32 1
  %61 = load ptr, ptr %60, align 8, !tbaa !43
  store ptr %61, ptr %58, align 8, !tbaa !152
  %62 = getelementptr inbounds nuw %struct.pm_location_t, ptr %49, i32 0, i32 1
  %63 = load ptr, ptr %10, align 8, !tbaa !57
  %64 = getelementptr inbounds nuw %struct.pm_token_t, ptr %63, i32 0, i32 2
  %65 = load ptr, ptr %64, align 8, !tbaa !44
  store ptr %65, ptr %62, align 8, !tbaa !153
  br label %66

66:                                               ; preds = %57, %54
  %67 = getelementptr inbounds nuw %struct.pm_while_node, ptr %16, i32 0, i32 3
  %68 = load ptr, ptr %11, align 8, !tbaa !57
  %69 = getelementptr inbounds nuw %struct.pm_token_t, ptr %68, i32 0, i32 0
  %70 = load i32, ptr %69, align 8, !tbaa !42
  %71 = icmp eq i32 %70, 3
  br i1 %71, label %72, label %75

72:                                               ; preds = %66
  %73 = getelementptr inbounds nuw %struct.pm_location_t, ptr %67, i32 0, i32 0
  store ptr null, ptr %73, align 8, !tbaa !152
  %74 = getelementptr inbounds nuw %struct.pm_location_t, ptr %67, i32 0, i32 1
  store ptr null, ptr %74, align 8, !tbaa !153
  br label %84

75:                                               ; preds = %66
  %76 = getelementptr inbounds nuw %struct.pm_location_t, ptr %67, i32 0, i32 0
  %77 = load ptr, ptr %11, align 8, !tbaa !57
  %78 = getelementptr inbounds nuw %struct.pm_token_t, ptr %77, i32 0, i32 1
  %79 = load ptr, ptr %78, align 8, !tbaa !43
  store ptr %79, ptr %76, align 8, !tbaa !152
  %80 = getelementptr inbounds nuw %struct.pm_location_t, ptr %67, i32 0, i32 1
  %81 = load ptr, ptr %11, align 8, !tbaa !57
  %82 = getelementptr inbounds nuw %struct.pm_token_t, ptr %81, i32 0, i32 2
  %83 = load ptr, ptr %82, align 8, !tbaa !44
  store ptr %83, ptr %80, align 8, !tbaa !153
  br label %84

84:                                               ; preds = %75, %72
  %85 = getelementptr inbounds nuw %struct.pm_while_node, ptr %16, i32 0, i32 4
  %86 = load ptr, ptr %12, align 8, !tbaa !128
  store ptr %86, ptr %85, align 8, !tbaa !764
  %87 = getelementptr inbounds nuw %struct.pm_while_node, ptr %16, i32 0, i32 5
  %88 = load ptr, ptr %13, align 8, !tbaa !122
  store ptr %88, ptr %87, align 8, !tbaa !766
  call void @llvm.memcpy.p0.p0.i64(ptr align 8 %21, ptr align 8 %16, i64 88, i1 false), !tbaa.struct !761
  %89 = load ptr, ptr %15, align 8, !tbaa !762
  call void @llvm.lifetime.end.p0(i64 8, ptr %15) #15
  ret ptr %89
}